; Function Attrs: mustprogress nounwind uwtable
define dso_local void @_ZNK4llvm16CheckTypeMatcher9printImplERNS_11raw_ostreamEj(ptr nocapture noundef nonnull readonly align 8 dereferenceable(36) %0, ptr noundef nonnull align 8 dereferenceable(48) %1, i32 noundef %2) unnamed_addr #1 align 2 {
  %4 = tail call noundef nonnull align 8 dereferenceable(48) ptr @_ZN4llvm11raw_ostream6indentEj(ptr noundef nonnull align 8 dereferenceable(48) %1, i32 noundef %2) #13
  %5 = getelementptr inbounds nuw i8, ptr %4, i64 24
  %6 = load ptr, ptr %5, align 8
  %7 = getelementptr inbounds nuw i8, ptr %4, i64 32
  %8 = load ptr, ptr %7, align 8
  %9 = ptrtoint ptr %6 to i64
  %10 = ptrtoint ptr %8 to i64
  %11 = sub i64 %9, %10
  %12 = icmp ult i64 %11, 10
  br i1 %12, label %13, label %15

13:                                               ; preds = %3
  %14 = tail call noundef nonnull align 8 dereferenceable(48) ptr @_ZN4llvm11raw_ostream5writeEPKcm(ptr noundef nonnull align 8 dereferenceable(48) %4, ptr noundef nonnull @.str.19, i64 noundef 10) #13
  br label %_ZN4llvm11raw_ostreamlsEPKc.exit

15:                                               ; preds = %3
  tail call void @llvm.memcpy.p0.p0.i64(ptr noundef nonnull align 1 dereferenceable(10) %8, ptr noundef nonnull align 1 dereferenceable(10) @.str.19, i64 10, i1 false)
  %16 = load ptr, ptr %7, align 8
  %17 = getelementptr inbounds i8, ptr %16, i64 10
  store ptr %17, ptr %7, align 8
  br label %_ZN4llvm11raw_ostreamlsEPKc.exit

_ZN4llvm11raw_ostreamlsEPKc.exit:                 ; preds = %13, %15
  %.0.i.i = phi ptr [ %14, %13 ], [ %4, %15 ]
  %18 = getelementptr inbounds nuw i8, ptr %0, i64 28
  %19 = load i16, ptr %18, align 4
  %20 = tail call { ptr, i64 } @_ZN4llvm11getEnumNameENS_3MVT15SimpleValueTypeE(i16 noundef zeroext %19) #13
  %21 = extractvalue { ptr, i64 } %20, 0
  %22 = extractvalue { ptr, i64 } %20, 1
  %23 = getelementptr inbounds nuw i8, ptr %.0.i.i, i64 24
  %24 = load ptr, ptr %23, align 8
  %25 = getelementptr inbounds nuw i8, ptr %.0.i.i, i64 32
  %26 = load ptr, ptr %25, align 8
  %27 = ptrtoint ptr %24 to i64
  %28 = ptrtoint ptr %26 to i64
  %29 = sub i64 %27, %28
  %30 = icmp ugt i64 %22, %29
  br i1 %30, label %31, label %33

31:                                               ; preds = %_ZN4llvm11raw_ostreamlsEPKc.exit
  %32 = tail call noundef nonnull align 8 dereferenceable(48) ptr @_ZN4llvm11raw_ostream5writeEPKcm(ptr noundef nonnull align 8 dereferenceable(48) %.0.i.i, ptr noundef %21, i64 noundef %22) #13
  %.phi.trans.insert = getelementptr inbounds nuw i8, ptr %32, i64 32
  %.pre = load ptr, ptr %.phi.trans.insert, align 8
  br label %_ZN4llvm11raw_ostreamlsENS_9StringRefE.exit

33:                                               ; preds = %_ZN4llvm11raw_ostreamlsEPKc.exit
  %.not.i = icmp eq i64 %22, 0
  br i1 %.not.i, label %_ZN4llvm11raw_ostreamlsENS_9StringRefE.exit, label %34

34:                                               ; preds = %33
  tail call void @llvm.memcpy.p0.p0.i64(ptr align 1 %26, ptr align 1 %21, i64 %22, i1 false)
  %35 = load ptr, ptr %25, align 8
  %36 = getelementptr inbounds i8, ptr %35, i64 %22
  store ptr %36, ptr %25, align 8
  br label %_ZN4llvm11raw_ostreamlsENS_9StringRefE.exit

_ZN4llvm11raw_ostreamlsENS_9StringRefE.exit:      ; preds = %31, %33, %34
  %37 = phi ptr [ %.pre, %31 ], [ %36, %34 ], [ %26, %33 ]
  %.0.i = phi ptr [ %32, %31 ], [ %.0.i.i, %34 ], [ %.0.i.i, %33 ]
  %38 = getelementptr inbounds nuw i8, ptr %.0.i, i64 24
  %39 = load ptr, ptr %38, align 8
  %40 = ptrtoint ptr %39 to i64
  %41 = ptrtoint ptr %37 to i64
  %42 = sub i64 %40, %41
  %43 = icmp ult i64 %42, 8
  br i1 %43, label %44, label %46

44:                                               ; preds = %_ZN4llvm11raw_ostreamlsENS_9StringRefE.exit
  %45 = tail call noundef nonnull align 8 dereferenceable(48) ptr @_ZN4llvm11raw_ostream5writeEPKcm(ptr noundef nonnull align 8 dereferenceable(48) %.0.i, ptr noundef nonnull @.str.20, i64 noundef 8) #13
  br label %_ZN4llvm11raw_ostreamlsEPKc.exit4

46:                                               ; preds = %_ZN4llvm11raw_ostreamlsENS_9StringRefE.exit
  %47 = getelementptr inbounds nuw i8, ptr %.0.i, i64 32
  store i64 4426843216256573484, ptr %37, align 1
  %48 = load ptr, ptr %47, align 8
  %49 = getelementptr inbounds i8, ptr %48, i64 8
  store ptr %49, ptr %47, align 8
  br label %_ZN4llvm11raw_ostreamlsEPKc.exit4

_ZN4llvm11raw_ostreamlsEPKc.exit4:                ; preds = %44, %46
  %.0.i.i3 = phi ptr [ %45, %44 ], [ %.0.i, %46 ]
  %50 = getelementptr inbounds nuw i8, ptr %0, i64 32
  %51 = load i32, ptr %50, align 8
  %52 = zext i32 %51 to i64
  %53 = tail call noundef nonnull align 8 dereferenceable(48) ptr @_ZN4llvm11raw_ostreamlsEm(ptr noundef nonnull align 8 dereferenceable(48) %.0.i.i3, i64 noundef %52) #13
  %54 = getelementptr inbounds nuw i8, ptr %53, i64 32
  %55 = load ptr, ptr %54, align 8
  %56 = getelementptr inbounds nuw i8, ptr %53, i64 24
  %57 = load ptr, ptr %56, align 8
  %.not.i5 = icmp ult ptr %55, %57
  br i1 %.not.i5, label %60, label %58

58:                                               ; preds = %_ZN4llvm11raw_ostreamlsEPKc.exit4
  %59 = tail call noundef nonnull align 8 dereferenceable(48) ptr @_ZN4llvm11raw_ostream5writeEh(ptr noundef nonnull align 8 dereferenceable(48) %53, i8 noundef zeroext 10) #13
  br label %_ZN4llvm11raw_ostreamlsEc.exit

60:                                               ; preds = %_ZN4llvm11raw_ostreamlsEPKc.exit4
  %61 = getelementptr inbounds i8, ptr %55, i64 1
  store ptr %61, ptr %54, align 8
  store i8 10, ptr %55, align 1
  br label %_ZN4llvm11raw_ostreamlsEc.exit

_ZN4llvm11raw_ostreamlsEc.exit:                   ; preds = %58, %60
  ret void
}